; Function Attrs: nounwind uwtable
define noalias noundef ptr @Gia_ManCofVars(ptr noundef %0, i32 noundef %1) local_unnamed_addr #0 {
  %3 = getelementptr inbounds nuw i8, ptr %0, i64 144
  %4 = load ptr, ptr %3, align 8, !tbaa !39
  %.not = icmp eq ptr %4, null
  br i1 %.not, label %6, label %5

5:                                                ; preds = %2
  tail call void @free(ptr noundef nonnull %4) #27
  store ptr null, ptr %3, align 8, !tbaa !39
  br label %6

6:                                                ; preds = %2, %5
  tail call void @Gia_ManCreateRefs(ptr noundef nonnull %0) #27
  %7 = tail call noalias dereferenceable_or_null(16) ptr @malloc(i64 noundef 16) #26
  %8 = getelementptr inbounds nuw i8, ptr %7, i64 4
  store i32 0, ptr %8, align 4, !tbaa !30
  store i32 100, ptr %7, align 8, !tbaa !31
  %9 = tail call noalias dereferenceable_or_null(400) ptr @malloc(i64 noundef 400) #26
  %10 = getelementptr inbounds nuw i8, ptr %7, i64 8
  store ptr %9, ptr %10, align 8, !tbaa !32
  %11 = getelementptr i8, ptr %0, i64 32
  %12 = getelementptr inbounds nuw i8, ptr %0, i64 24
  %13 = load i32, ptr %12, align 8, !tbaa !36
  %14 = icmp sgt i32 %13, 0
  br i1 %14, label %.lr.ph, label %.critedge

.lr.ph:                                           ; preds = %6, %49
  %15 = phi i32 [ %50, %49 ], [ %13, %6 ]
  %16 = phi ptr [ %.pre.i34, %49 ], [ %9, %6 ]
  %indvars.iv = phi i64 [ %indvars.iv.next, %49 ], [ 0, %6 ]
  %.val = load ptr, ptr %11, align 8, !tbaa !40
  %.not21 = icmp eq ptr %.val, null
  br i1 %.not21, label %.critedge, label %17

17:                                               ; preds = %.lr.ph
  %18 = getelementptr inbounds nuw %struct.Gia_Obj_t_, ptr %.val, i64 %indvars.iv
  %.val27 = load i64, ptr %18, align 4
  %19 = and i64 %.val27, 2147483648
  %.not.i.i = icmp ne i64 %19, 0
  %20 = and i64 %.val27, 536870911
  %21 = icmp eq i64 %20, 536870911
  %narrow.i.not.not.i.not29 = or i1 %.not.i.i, %21
  %22 = and i64 %.val27, 2684354559
  %narrow.i3.i = icmp ne i64 %22, 2684354559
  %narrow.i.not = and i1 %narrow.i3.i, %narrow.i.not.not.i.not29
  br i1 %narrow.i.not, label %49, label %23

23:                                               ; preds = %17
  %.val26 = load ptr, ptr %3, align 8, !tbaa !39
  %sext.i = shl nuw nsw i64 %indvars.iv, 2
  %24 = getelementptr inbounds nuw i8, ptr %.val26, i64 %sext.i
  %25 = load i32, ptr %24, align 4, !tbaa !43
  %.not24 = icmp slt i32 %25, %1
  br i1 %.not24, label %49, label %26

26:                                               ; preds = %23
  %27 = load i32, ptr %8, align 4, !tbaa !30
  %28 = load i32, ptr %7, align 8, !tbaa !31
  %29 = icmp eq i32 %27, %28
  br i1 %29, label %30, label %Vec_IntPush.exit

30:                                               ; preds = %26
  %31 = icmp slt i32 %27, 16
  br i1 %31, label %32, label %37

32:                                               ; preds = %30
  %.not9.i.i = icmp eq ptr %16, null
  br i1 %.not9.i.i, label %35, label %33

33:                                               ; preds = %32
  %34 = tail call dereferenceable_or_null(64) ptr @realloc(ptr noundef nonnull %16, i64 noundef 64) #28
  br label %Vec_IntPush.exit.sink.split

35:                                               ; preds = %32
  %36 = tail call noalias dereferenceable_or_null(64) ptr @malloc(i64 noundef 64) #26
  br label %Vec_IntPush.exit.sink.split

37:                                               ; preds = %30
  %38 = shl nuw nsw i32 %27, 1
  %.not9.i9.i = icmp eq ptr %16, null
  %39 = zext nneg i32 %38 to i64
  %40 = shl nuw nsw i64 %39, 2
  br i1 %.not9.i9.i, label %43, label %41

41:                                               ; preds = %37
  %42 = tail call ptr @realloc(ptr noundef nonnull %16, i64 noundef %40) #28
  br label %Vec_IntPush.exit.sink.split

43:                                               ; preds = %37
  %44 = tail call noalias ptr @malloc(i64 noundef %40) #26
  br label %Vec_IntPush.exit.sink.split

Vec_IntPush.exit.sink.split:                      ; preds = %41, %43, %33, %35
  %.sink36 = phi ptr [ %34, %33 ], [ %36, %35 ], [ %42, %41 ], [ %44, %43 ]
  %.sink = phi i32 [ 16, %33 ], [ 16, %35 ], [ %38, %41 ], [ %38, %43 ]
  store ptr %.sink36, ptr %10, align 8, !tbaa !32
  store i32 %.sink, ptr %7, align 8, !tbaa !31
  br label %Vec_IntPush.exit

Vec_IntPush.exit:                                 ; preds = %Vec_IntPush.exit.sink.split, %26
  %.pre.i35 = phi ptr [ %16, %26 ], [ %.sink36, %Vec_IntPush.exit.sink.split ]
  %45 = add nsw i32 %27, 1
  store i32 %45, ptr %8, align 4, !tbaa !30
  %46 = sext i32 %27 to i64
  %47 = getelementptr inbounds i32, ptr %.pre.i35, i64 %46
  %48 = trunc nuw nsw i64 %indvars.iv to i32
  store i32 %48, ptr %47, align 4, !tbaa !43
  %.pre = load i32, ptr %12, align 8, !tbaa !36
  br label %49

49:                                               ; preds = %17, %23, %Vec_IntPush.exit
  %50 = phi i32 [ %15, %17 ], [ %15, %23 ], [ %.pre, %Vec_IntPush.exit ]
  %.pre.i34 = phi ptr [ %16, %17 ], [ %16, %23 ], [ %.pre.i35, %Vec_IntPush.exit ]
  %indvars.iv.next = add nuw nsw i64 %indvars.iv, 1
  %51 = sext i32 %50 to i64
  %52 = icmp slt i64 %indvars.iv.next, %51
  br i1 %52, label %.lr.ph, label %.critedge, !llvm.loop !100

.critedge:                                        ; preds = %.lr.ph, %49, %6
  %53 = load ptr, ptr %3, align 8, !tbaa !39
  %.not22 = icmp eq ptr %53, null
  br i1 %.not22, label %55, label %54

54:                                               ; preds = %.critedge
  tail call void @free(ptr noundef nonnull %53) #27
  store ptr null, ptr %3, align 8, !tbaa !39
  br label %55

55:                                               ; preds = %.critedge, %54
  ret ptr %7
}